; Function Attrs: mustprogress uwtable
define void @_ZN2cv15ImageCollectionC2ERKNSt7__cxx1112basic_stringIcSt11char_traitsIcESaIcEEEi(ptr noundef nonnull writeonly align 8 captures(none) dereferenceable(16) %0, ptr noundef nonnull align 8 dereferenceable(32) %1, i32 noundef %2) unnamed_addr #4 align 2 personality ptr @__gxx_personality_v0 {
  %4 = tail call noalias noundef nonnull dereferenceable(104) ptr @_Znwm(i64 noundef 104) #34
  invoke void @_ZN2cv15ImageCollection4ImplC1ERKNSt7__cxx1112basic_stringIcSt11char_traitsIcESaIcEEEi(ptr noundef nonnull align 8 dereferenceable(104) %4, ptr noundef nonnull align 8 dereferenceable(32) %1, i32 noundef %2)
          to label %5 unwind label %21

5:                                                ; preds = %3
  store ptr %4, ptr %0, align 8, !tbaa !128
  %6 = getelementptr inbounds nuw i8, ptr %0, i64 8
  store ptr null, ptr %6, align 8, !tbaa !19
  %7 = invoke noalias noundef nonnull dereferenceable(24) ptr @_Znwm(i64 noundef 24) #34
          to label %_ZNSt14__shared_countILN9__gnu_cxx12_Lock_policyE2EEC2IPN2cv15ImageCollection4ImplEEET_.exit unwind label %8

8:                                                ; preds = %5
  %9 = landingpad { ptr, i32 }
          catch ptr null
  %10 = extractvalue { ptr, i32 } %9, 0
  %11 = tail call ptr @__cxa_begin_catch(ptr %10) #30
  tail call void @_ZN2cv15ImageCollection4ImplD2Ev(ptr noundef nonnull align 8 dereferenceable(104) %4) #30
  tail call void @_ZdlPv(ptr noundef nonnull %4) #32
  invoke void @__cxa_rethrow() #33
          to label %17 unwind label %12

12:                                               ; preds = %8
  %13 = landingpad { ptr, i32 }
          cleanup
  invoke void @__cxa_end_catch()
          to label %common.resume unwind label %14

common.resume:                                    ; preds = %12, %21
  %common.resume.op = phi { ptr, i32 } [ %22, %21 ], [ %13, %12 ]
  resume { ptr, i32 } %common.resume.op

14:                                               ; preds = %12
  %15 = landingpad { ptr, i32 }
          catch ptr null
  %16 = extractvalue { ptr, i32 } %15, 0
  tail call void @__clang_call_terminate(ptr %16) #31
  unreachable

17:                                               ; preds = %8
  unreachable

_ZNSt14__shared_countILN9__gnu_cxx12_Lock_policyE2EEC2IPN2cv15ImageCollection4ImplEEET_.exit: ; preds = %5
  %18 = getelementptr inbounds nuw i8, ptr %7, i64 8
  store i32 1, ptr %18, align 8, !tbaa !22
  %19 = getelementptr inbounds nuw i8, ptr %7, i64 12
  store i32 1, ptr %19, align 4, !tbaa !24
  store ptr getelementptr inbounds nuw inrange(-16, 40) (i8, ptr @_ZTVSt15_Sp_counted_ptrIPN2cv15ImageCollection4ImplELN9__gnu_cxx12_Lock_policyE2EE, i64 16), ptr %7, align 8, !tbaa !25
  %20 = getelementptr inbounds nuw i8, ptr %7, i64 16
  store ptr %4, ptr %20, align 8, !tbaa !269
  store ptr %7, ptr %6, align 8, !tbaa !19
  ret void

21:                                               ; preds = %3
  %22 = landingpad { ptr, i32 }
          cleanup
  tail call void @_ZdlPv(ptr noundef nonnull %4) #32
  br label %common.resume
}